target datalayout = "e-m:e-p270:32:32-p271:32:32-p272:64:64-i64:64-i128:128-f80:128-n8:16:32:64-S128"
target triple = "x86_64-pc-linux-gnu"

%struct.expert_field = type { i32, i32 }
%struct.mcpe_session_state = type { i8, i32 }
%struct._packet_info = type { ptr, ptr, i32, i32, %struct.nstime_t, %struct.nstime_t, %struct.nstime_t, i8, ptr, ptr, ptr, ptr, %struct._address, %struct._address, %struct._address, %struct._address, %struct._address, %struct._address, i32, ptr, i8, [3 x i8], %struct.anon, i32, i32, i32, i32, ptr, i8, ptr, ptr, i16, i16, i32, i32, i16, i32, i32, ptr, ptr, ptr, i8, i8, i16, i16, i16, i32, i16, i16, ptr, ptr, ptr, ptr, ptr, i32, i32 }
%struct.nstime_t = type { i64, i32 }
%struct._address = type { i32, i32, ptr, ptr }
%struct.anon = type { i8, [3 x i8] }

@ei_mcpe_encrypted_packet = internal global %struct.expert_field zeroinitializer, align 4
@.str.43 = private unnamed_addr constant [5 x i8] c"MCPE\00", align 1
@proto_mcpe = internal global i32 0, align 4
@.str.54 = private unnamed_addr constant [17 x i8] c"Encrypted packet\00", align 1
@.str.55 = private unnamed_addr constant [31 x i8] c", Encrypted packet (%d octets)\00", align 1

; Function Attrs: null_pointer_is_valid sspstrong uwtable
define internal ptr @mcpe_get_session_state(ptr noundef %0) #0 {
  %2 = alloca ptr, align 8
  %3 = alloca ptr, align 8
  %4 = alloca ptr, align 8
  store ptr %0, ptr %2, align 8
  call void @llvm.lifetime.start.p0(i64 8, ptr %3) #7
  call void @llvm.lifetime.start.p0(i64 8, ptr %4) #7
  %5 = load ptr, ptr %2, align 8
  %6 = call ptr @find_or_create_conversation(ptr noundef %5)
  store ptr %6, ptr %3, align 8
  %7 = load ptr, ptr %3, align 8
  %8 = load i32, ptr @proto_mcpe, align 4
  %9 = call ptr @conversation_get_proto_data(ptr noundef %7, i32 noundef %8)
  store ptr %9, ptr %4, align 8
  %10 = load ptr, ptr %4, align 8
  %11 = icmp eq ptr %10, null
  br i1 %11, label %12, label %22

12:                                               ; preds = %1
  %13 = call ptr @wmem_file_scope()
  %14 = call noalias ptr @wmem_alloc(ptr noundef %13, i64 noundef 8) #9
  store ptr %14, ptr %4, align 8
  %15 = load ptr, ptr %4, align 8
  %16 = getelementptr inbounds nuw %struct.mcpe_session_state, ptr %15, i32 0, i32 0
  store i8 0, ptr %16, align 4
  %17 = load ptr, ptr %4, align 8
  %18 = getelementptr inbounds nuw %struct.mcpe_session_state, ptr %17, i32 0, i32 1
  store i32 0, ptr %18, align 4
  %19 = load ptr, ptr %3, align 8
  %20 = load i32, ptr @proto_mcpe, align 4
  %21 = load ptr, ptr %4, align 8
  call void @conversation_add_proto_data(ptr noundef %19, i32 noundef %20, ptr noundef %21)
  br label %22

22:                                               ; preds = %12, %1
  %23 = load ptr, ptr %4, align 8
  call void @llvm.lifetime.end.p0(i64 8, ptr %4) #7
  call void @llvm.lifetime.end.p0(i64 8, ptr %3) #7
  ret ptr %23
}

; Function Attrs: null_pointer_is_valid sspstrong uwtable
define internal i32 @dissect_mcpe(ptr noundef %0, ptr noundef %1, ptr noundef %2, ptr noundef %3) #0 {
  %5 = alloca i32, align 4
  %6 = alloca ptr, align 8
  %7 = alloca ptr, align 8
  %8 = alloca ptr, align 8
  %9 = alloca ptr, align 8
  %10 = alloca ptr, align 8
  %11 = alloca ptr, align 8
  %12 = alloca i32, align 4
  %13 = alloca i32, align 4
  store ptr %0, ptr %6, align 8
  store ptr %1, ptr %7, align 8
  store ptr %2, ptr %8, align 8
  store ptr %3, ptr %9, align 8
  call void @llvm.lifetime.start.p0(i64 8, ptr %10) #7
  %14 = load ptr, ptr %7, align 8
  %15 = call ptr @mcpe_get_session_state(ptr noundef %14)
  store ptr %15, ptr %10, align 8
  %16 = load ptr, ptr %10, align 8
  %17 = getelementptr inbounds nuw %struct.mcpe_session_state, ptr %16, i32 0, i32 0
  %18 = load i8, ptr %17, align 4, !range !8, !noundef !9
  %19 = trunc i8 %18 to i1
  br i1 %19, label %20, label %49

20:                                               ; preds = %4
  %21 = load ptr, ptr %7, align 8
  %22 = getelementptr inbounds nuw %struct._packet_info, ptr %21, i32 0, i32 3
  %23 = load i32, ptr %22, align 4
  %24 = load ptr, ptr %10, align 8
  %25 = getelementptr inbounds nuw %struct.mcpe_session_state, ptr %24, i32 0, i32 1
  %26 = load i32, ptr %25, align 4
  %27 = icmp ugt i32 %23, %26
  br i1 %27, label %28, label %49

28:                                               ; preds = %20
  call void @llvm.lifetime.start.p0(i64 8, ptr %11) #7
  call void @llvm.lifetime.start.p0(i64 4, ptr %12) #7
  %29 = load ptr, ptr %7, align 8
  %30 = getelementptr inbounds nuw %struct._packet_info, ptr %29, i32 0, i32 1
  %31 = load ptr, ptr %30, align 8
  call void @col_set_str(ptr noundef %31, i32 noundef 35, ptr noundef @.str.43)
  %32 = load ptr, ptr %7, align 8
  %33 = getelementptr inbounds nuw %struct._packet_info, ptr %32, i32 0, i32 1
  %34 = load ptr, ptr %33, align 8
  call void @col_set_str(ptr noundef %34, i32 noundef 25, ptr noundef @.str.54)
  %35 = load ptr, ptr %6, align 8
  %36 = call i32 @tvb_reported_length(ptr noundef %35)
  store i32 %36, ptr %12, align 4
  %37 = load ptr, ptr %8, align 8
  %38 = load i32, ptr @proto_mcpe, align 4
  %39 = load ptr, ptr %6, align 8
  %40 = load i32, ptr %12, align 4
  %41 = call ptr @proto_tree_add_item(ptr noundef %37, i32 noundef %38, ptr noundef %39, i32 noundef 0, i32 noundef %40, i32 noundef 0)
  store ptr %41, ptr %11, align 8
  %42 = load ptr, ptr %11, align 8
  %43 = load i32, ptr %12, align 4
  call void (ptr, ptr, ...) @proto_item_append_text(ptr noundef %42, ptr noundef @.str.55, i32 noundef %43)
  %44 = load ptr, ptr %7, align 8
  %45 = load ptr, ptr %11, align 8
  %46 = call ptr @expert_add_info(ptr noundef %44, ptr noundef %45, ptr noundef @ei_mcpe_encrypted_packet)
  %47 = load ptr, ptr %6, align 8
  %48 = call i32 @tvb_captured_length(ptr noundef %47)
  store i32 %48, ptr %5, align 4
  store i32 1, ptr %13, align 4
  call void @llvm.lifetime.end.p0(i64 4, ptr %12) #7
  call void @llvm.lifetime.end.p0(i64 8, ptr %11) #7
  br label %59

49:                                               ; preds = %20, %4
  %50 = load ptr, ptr %6, align 8
  %51 = load ptr, ptr %7, align 8
  %52 = load ptr, ptr %8, align 8
  %53 = load ptr, ptr %9, align 8
  %54 = call zeroext i1 @dissect_mcpe_heur(ptr noundef %50, ptr noundef %51, ptr noundef %52, ptr noundef %53)
  br i1 %54, label %55, label %58

55:                                               ; preds = %49
  %56 = load ptr, ptr %6, align 8
  %57 = call i32 @tvb_captured_length(ptr noundef %56)
  store i32 %57, ptr %5, align 4
  store i32 1, ptr %13, align 4
  br label %59

58:                                               ; preds = %49
  store i32 0, ptr %5, align 4
  store i32 1, ptr %13, align 4
  br label %59

59:                                               ; preds = %58, %55, %28
  call void @llvm.lifetime.end.p0(i64 8, ptr %10) #7
  %60 = load i32, ptr %5, align 4
  ret i32 %60
}