; Function Attrs: null_pointer_is_valid sspstrong uwtable
define internal i32 @dissect_mcpe(ptr noundef %0, ptr noundef %1, ptr noundef %2, ptr noundef %3) #0 {
  %5 = tail call ptr @find_or_create_conversation(ptr noundef %1)
  %6 = load i32, ptr @proto_mcpe, align 4
  %7 = tail call ptr @conversation_get_proto_data(ptr noundef %5, i32 noundef %6)
  %8 = icmp eq ptr %7, null
  br i1 %8, label %9, label %mcpe_get_session_state.exit

9:                                                ; preds = %4
  %10 = tail call ptr @wmem_file_scope()
  %11 = tail call noalias dereferenceable_or_null(8) ptr @wmem_alloc(ptr noundef %10, i64 noundef 8) #5
  store i8 0, ptr %11, align 4
  %12 = getelementptr inbounds nuw i8, ptr %11, i64 4
  store i32 0, ptr %12, align 4
  %13 = load i32, ptr @proto_mcpe, align 4
  tail call void @conversation_add_proto_data(ptr noundef %5, i32 noundef %13, ptr noundef %11)
  br label %mcpe_get_session_state.exit

mcpe_get_session_state.exit:                      ; preds = %4, %9
  %.0.i = phi ptr [ %11, %9 ], [ %7, %4 ]
  %14 = load i8, ptr %.0.i, align 4, !range !8, !noundef !9
  %15 = trunc nuw i8 %14 to i1
  br i1 %15, label %16, label %30

16:                                               ; preds = %mcpe_get_session_state.exit
  %17 = getelementptr inbounds nuw i8, ptr %1, i64 20
  %18 = load i32, ptr %17, align 4
  %19 = getelementptr inbounds nuw i8, ptr %.0.i, i64 4
  %20 = load i32, ptr %19, align 4
  %21 = icmp ugt i32 %18, %20
  br i1 %21, label %22, label %30

22:                                               ; preds = %16
  %23 = getelementptr inbounds nuw i8, ptr %1, i64 8
  %24 = load ptr, ptr %23, align 8
  tail call void @col_set_str(ptr noundef %24, i32 noundef 35, ptr noundef nonnull @.str.43)
  %25 = load ptr, ptr %23, align 8
  tail call void @col_set_str(ptr noundef %25, i32 noundef 25, ptr noundef nonnull @.str.54)
  %26 = tail call i32 @tvb_reported_length(ptr noundef %0)
  %27 = load i32, ptr @proto_mcpe, align 4
  %28 = tail call ptr @proto_tree_add_item(ptr noundef %2, i32 noundef %27, ptr noundef %0, i32 noundef 0, i32 noundef %26, i32 noundef 0)
  tail call void (ptr, ptr, ...) @proto_item_append_text(ptr noundef %28, ptr noundef nonnull @.str.55, i32 noundef %26)
  %29 = tail call ptr @expert_add_info(ptr noundef %1, ptr noundef %28, ptr noundef nonnull @ei_mcpe_encrypted_packet)
  br label %.sink.split

30:                                               ; preds = %16, %mcpe_get_session_state.exit
  %31 = tail call zeroext i1 @dissect_mcpe_heur(ptr noundef %0, ptr noundef %1, ptr noundef %2, ptr noundef %3)
  br i1 %31, label %.sink.split, label %33

.sink.split:                                      ; preds = %30, %22
  %32 = tail call i32 @tvb_captured_length(ptr noundef %0)
  br label %33

33:                                               ; preds = %.sink.split, %30
  %.0 = phi i32 [ 0, %30 ], [ %32, %.sink.split ]
  ret i32 %.0
}